(dp0
(S'I1'
p1
S'BH'
p2
tp3
F0.9511400551898715
s(g1
S'H1'
p4
tp5
F0.5665879552174706
s(S'I2'
p6
S'H3'
p7
tp8
F-0.415458238462613
s(S'BI'
p9
g4
tp10
F-0.1953416209401574
s(g9
g2
tp11
F-0.48830667520261195
s(g4
S'O1'
p12
tp13
F0.7317891559502245
s(g6
S'H2'
p14
tp15
F0.7639389307229321
s(g9
S'H5'
p16
tp17
F0.2755668936437312
s(g14
g12
tp18
F-0.5502911050263872
s(g1
g14
tp19
F0.6445701964209563
s(g6
g16
tp20
F-0.956670996977922
s(g16
g12
tp21
F-0.4795135605825177
s(g6
g4
tp22
F-0.49641631862716207
s(g9
S'H4'
p23
tp24
F0.6363540133833491
s(g1
g7
tp25
F-0.6164723351843202
s(g7
g12
tp26
F-0.5455417356537491
s(g6
g23
tp27
F0.27103472279838436
s(g9
g7
tp28
F0.9211022770573257
s(g1
g23
tp29
F-0.5268262086862493
s(g23
g12
tp30
F0.8153445826440074
s(g2
g12
tp31
F-0.2512180612977529
s(g9
g14
tp32
F0.9826564762919913
s(g6
g2
tp33
F-0.06288306794757714
s(g1
g16
tp34
F0.9165035331398432
s.